target datalayout = "e-m:e-p270:32:32-p271:32:32-p272:64:64-i64:64-i128:128-f80:128-n8:16:32:64-S128"
target triple = "x86_64-pc-linux-gnu"

%"class.icu_77::UObject" = type { ptr }
%"class.icu_77::UnicodeString" = type { %"class.icu_77::Replaceable", %"union.icu_77::UnicodeString::StackBufferOrFields" }
%"class.icu_77::Replaceable" = type { %"class.icu_77::UObject" }
%"union.icu_77::UnicodeString::StackBufferOrFields" = type { %struct.anon.0, [32 x i8] }
%struct.anon.0 = type { i16, i32, i32, ptr }
%struct.anon = type { i16, [27 x i16] }
%"class.icu_77::RuleHalf" = type { [8 x i8], %"class.icu_77::UnicodeString", i32, i32, i32, i32, i32, i8, i8, i32, ptr }

@_ZTVN6icu_777UObjectE = available_externally unnamed_addr constant { [5 x ptr] } { [5 x ptr] [ptr null, ptr @_ZTIN6icu_777UObjectE, ptr @_ZN6icu_777UObjectD1Ev, ptr @_ZN6icu_777UObjectD0Ev, ptr @_ZNK6icu_777UObject17getDynamicClassIDEv] }, align 8

; Function Attrs: inlinehint mustprogress nounwind uwtable
define linkonce_odr void @_ZN6icu_777UObjectC2Ev(ptr noundef nonnull align 8 dereferenceable(8) %0) unnamed_addr #2 comdat align 2 {
  %2 = alloca ptr, align 8
  store ptr %0, ptr %2, align 8, !tbaa !158
  %3 = load ptr, ptr %2, align 8
  store ptr getelementptr inbounds inrange(-16, 24) ({ [5 x ptr] }, ptr @_ZTVN6icu_777UObjectE, i32 0, i32 0, i32 2), ptr %3, align 8, !tbaa !31
  ret void
}

; Function Attrs: inlinehint mustprogress nounwind uwtable
define linkonce_odr void @_ZN6icu_7711ReplaceableC2Ev(ptr noundef nonnull align 8 dereferenceable(8) %0) unnamed_addr #2 comdat align 2 {
  %2 = alloca ptr, align 8
  store ptr %0, ptr %2, align 8, !tbaa !156
  %3 = load ptr, ptr %2, align 8
  call void @_ZN6icu_777UObjectC2Ev(ptr noundef nonnull align 8 dereferenceable(8) %3) #11
  store ptr getelementptr inbounds inrange(-16, 88) ({ [13 x ptr] }, ptr @_ZTVN6icu_7711ReplaceableE, i32 0, i32 0, i32 2), ptr %3, align 8, !tbaa !31
  ret void
}

; Function Attrs: inlinehint mustprogress uwtable
define linkonce_odr void @_ZN6icu_7713UnicodeStringC2Ev(ptr noundef nonnull align 8 dereferenceable(64) %0) unnamed_addr #3 comdat align 2 {
  %2 = alloca ptr, align 8
  store ptr %0, ptr %2, align 8, !tbaa !40
  %3 = load ptr, ptr %2, align 8
  call void @_ZN6icu_7711ReplaceableC2Ev(ptr noundef nonnull align 8 dereferenceable(8) %3)
  store ptr getelementptr inbounds inrange(-16, 88) ({ [13 x ptr] }, ptr @_ZTVN6icu_7713UnicodeStringE, i32 0, i32 0, i32 2), ptr %3, align 8, !tbaa !31
  %4 = getelementptr inbounds nuw %"class.icu_77::UnicodeString", ptr %3, i32 0, i32 1
  %5 = getelementptr inbounds nuw %struct.anon, ptr %4, i32 0, i32 0
  store i16 2, ptr %5, align 8, !tbaa !68
  ret void
}

; Function Attrs: mustprogress uwtable
define void @_ZN6icu_778RuleHalfC2ERNS_20TransliteratorParserE(ptr noundef nonnull align 8 dereferenceable(112) %0, ptr noundef nonnull align 8 dereferenceable(498) %1) unnamed_addr #1 align 2 {
  %3 = alloca ptr, align 8
  %4 = alloca ptr, align 8
  store ptr %0, ptr %3, align 8, !tbaa !69
  store ptr %1, ptr %4, align 8, !tbaa !71
  %5 = load ptr, ptr %3, align 8
  %6 = getelementptr inbounds nuw %"class.icu_77::RuleHalf", ptr %5, i32 0, i32 1
  call void @_ZN6icu_7713UnicodeStringC2Ev(ptr noundef nonnull align 8 dereferenceable(64) %6)
  %7 = getelementptr inbounds nuw %"class.icu_77::RuleHalf", ptr %5, i32 0, i32 10
  %8 = load ptr, ptr %4, align 8, !tbaa !71
  store ptr %8, ptr %7, align 8, !tbaa !71
  %9 = getelementptr inbounds nuw %"class.icu_77::RuleHalf", ptr %5, i32 0, i32 2
  store i32 -1, ptr %9, align 8, !tbaa !73
  %10 = getelementptr inbounds nuw %"class.icu_77::RuleHalf", ptr %5, i32 0, i32 3
  store i32 -1, ptr %10, align 4, !tbaa !77
  %11 = getelementptr inbounds nuw %"class.icu_77::RuleHalf", ptr %5, i32 0, i32 4
  store i32 -1, ptr %11, align 8, !tbaa !78
  %12 = getelementptr inbounds nuw %"class.icu_77::RuleHalf", ptr %5, i32 0, i32 5
  store i32 0, ptr %12, align 4, !tbaa !79
  %13 = getelementptr inbounds nuw %"class.icu_77::RuleHalf", ptr %5, i32 0, i32 6
  store i32 0, ptr %13, align 8, !tbaa !80
  %14 = getelementptr inbounds nuw %"class.icu_77::RuleHalf", ptr %5, i32 0, i32 8
  store i8 0, ptr %14, align 1, !tbaa !81
  %15 = getelementptr inbounds nuw %"class.icu_77::RuleHalf", ptr %5, i32 0, i32 7
  store i8 0, ptr %15, align 4, !tbaa !82
  %16 = getelementptr inbounds nuw %"class.icu_77::RuleHalf", ptr %5, i32 0, i32 9
  store i32 1, ptr %16, align 8, !tbaa !83
  ret void
}