; Function Attrs: mustprogress nofree norecurse nosync nounwind willreturn memory(argmem: write) uwtable
define void @_ZN6icu_778RuleHalfC2ERNS_20TransliteratorParserE(ptr noundef nonnull writeonly align 8 captures(none) dereferenceable(112) initializes((8, 18), (72, 94), (96, 100), (104, 112)) %0, ptr noundef nonnull align 8 dereferenceable(498) %1) unnamed_addr #10 align 2 {
  %3 = getelementptr inbounds nuw i8, ptr %0, i64 8
  store ptr getelementptr inbounds nuw inrange(-16, 88) (i8, ptr @_ZTVN6icu_7713UnicodeStringE, i64 16), ptr %3, align 8, !tbaa !15
  %4 = getelementptr inbounds nuw i8, ptr %0, i64 16
  store i16 2, ptr %4, align 8, !tbaa !44
  %5 = getelementptr inbounds nuw i8, ptr %0, i64 104
  store ptr %1, ptr %5, align 8, !tbaa !46
  %6 = getelementptr inbounds nuw i8, ptr %0, i64 72
  store i32 -1, ptr %6, align 8, !tbaa !48
  %7 = getelementptr inbounds nuw i8, ptr %0, i64 76
  store i32 -1, ptr %7, align 4, !tbaa !52
  %8 = getelementptr inbounds nuw i8, ptr %0, i64 80
  store i32 -1, ptr %8, align 8, !tbaa !53
  %9 = getelementptr inbounds nuw i8, ptr %0, i64 84
  %10 = getelementptr inbounds nuw i8, ptr %0, i64 96
  tail call void @llvm.memset.p0.i64(ptr noundef nonnull align 4 dereferenceable(10) %9, i8 0, i64 10, i1 false)
  store i32 1, ptr %10, align 8, !tbaa !54
  ret void
}